; Function Attrs: mustprogress nounwind uwtable
define hidden void @_ZN6Assimp4D3MF14D3MFOpcPackageD2Ev(ptr nocapture noundef nonnull readonly align 8 dereferenceable(40) %this) unnamed_addr #0 align 2 personality ptr @__gxx_personality_v0 {
entry:
  %mZipArchive = getelementptr inbounds i8, ptr %this, i64 8
  %0 = load ptr, ptr %mZipArchive, align 8
  %1 = load ptr, ptr %this, align 8
  %vtable = load ptr, ptr %0, align 8
  %vfn = getelementptr inbounds i8, ptr %vtable, i64 40
  %2 = load ptr, ptr %vfn, align 8
  invoke void %2(ptr noundef nonnull align 8 dereferenceable(40) %0, ptr noundef %1)
          to label %invoke.cont unwind label %terminate.lpad

invoke.cont:                                      ; preds = %entry
  %3 = load ptr, ptr %mZipArchive, align 8
  %isnull = icmp eq ptr %3, null
  br i1 %isnull, label %delete.end, label %delete.notnull

delete.notnull:                                   ; preds = %invoke.cont
  %vtable3 = load ptr, ptr %3, align 8
  %vfn4 = getelementptr inbounds i8, ptr %vtable3, i64 8
  %4 = load ptr, ptr %vfn4, align 8
  tail call void %4(ptr noundef nonnull align 8 dereferenceable(40) %3) #21
  br label %delete.end

delete.end:                                       ; preds = %delete.notnull, %invoke.cont
  %mEmbeddedTextures = getelementptr inbounds i8, ptr %this, i64 16
  %5 = load ptr, ptr %mEmbeddedTextures, align 8
  %tobool.not.i.i.i = icmp eq ptr %5, null
  br i1 %tobool.not.i.i.i, label %_ZNSt6vectorIP9aiTextureSaIS1_EED2Ev.exit, label %if.then.i.i.i

if.then.i.i.i:                                    ; preds = %delete.end
  tail call void @_ZdlPv(ptr noundef nonnull %5) #22
  br label %_ZNSt6vectorIP9aiTextureSaIS1_EED2Ev.exit

_ZNSt6vectorIP9aiTextureSaIS1_EED2Ev.exit:        ; preds = %delete.end, %if.then.i.i.i
  ret void

terminate.lpad:                                   ; preds = %entry
  %6 = landingpad { ptr, i32 }
          catch ptr null
  %7 = extractvalue { ptr, i32 } %6, 0
  tail call void @__clang_call_terminate(ptr %7) #23
  unreachable
}